; Function Attrs: nounwind uwtable
define ptr @Wln_BlastSystemVerilog(ptr noundef %0, ptr noundef %1, ptr noundef %2, i32 noundef %3, i32 noundef %4, i32 noundef %5, i32 noundef %6, i32 noundef %7) local_unnamed_addr #0 {
  %9 = alloca [1000 x i8], align 16
  call void @llvm.lifetime.start.p0(i64 1000, ptr nonnull %9) #13
  %10 = tail call ptr @strstr(ptr noundef nonnull dereferenceable(1) %0, ptr noundef nonnull dereferenceable(1) @.str.17) #12
  %.not = icmp eq ptr %10, null
  %11 = tail call ptr @strstr(ptr noundef nonnull dereferenceable(1) %0, ptr noundef nonnull dereferenceable(1) @.str.16) #12
  %.not40 = icmp eq ptr %11, null
  %12 = tail call ptr @Abc_FrameReadFlag(ptr noundef nonnull @.str.10) #13
  %.not.i = icmp eq ptr %12, null
  br i1 %.not.i, label %15, label %13

13:                                               ; preds = %8
  %14 = tail call ptr @Abc_FrameReadFlag(ptr noundef nonnull @.str.10) #13
  br label %15

15:                                               ; preds = %13, %8
  %16 = tail call ptr @Abc_FrameReadFlag(ptr noundef nonnull @.str.11) #13
  %.not2.i = icmp eq ptr %16, null
  br i1 %.not2.i, label %Wln_GetYosysName.exit, label %17

17:                                               ; preds = %15
  %18 = tail call ptr @Abc_FrameReadFlag(ptr noundef nonnull @.str.11) #13
  br label %Wln_GetYosysName.exit

Wln_GetYosysName.exit:                            ; preds = %15, %17
  %.0.i = phi ptr [ %18, %17 ], [ @.str.9, %15 ]
  %19 = select i1 %.not, ptr @.str.29, ptr @.str.28
  %.not41 = icmp eq ptr %2, null
  %20 = select i1 %.not41, ptr @.str.20, ptr @.str.19
  %21 = select i1 %.not41, ptr @.str.20, ptr %2
  %22 = select i1 %.not40, ptr @.str.20, ptr @.str.21
  %.not42 = icmp eq ptr %1, null
  %23 = select i1 %.not42, ptr @.str.30, ptr @.str.22
  %24 = select i1 %.not42, ptr @.str.20, ptr %1
  %.not43 = icmp eq i32 %5, 0
  %.not44 = icmp eq i32 %6, 0
  %25 = select i1 %.not44, ptr @.str.32, ptr @.str.31
  %26 = select i1 %.not43, ptr @.str.20, ptr %25
  %27 = call i32 (ptr, ptr, ...) @sprintf(ptr noundef nonnull dereferenceable(1) %9, ptr noundef nonnull dereferenceable(1) @.str.27, ptr noundef %.0.i, ptr noundef nonnull %19, ptr noundef nonnull %20, ptr noundef nonnull %21, ptr noundef nonnull %22, ptr noundef nonnull %0, ptr noundef nonnull %23, ptr noundef nonnull %24, ptr noundef nonnull %26, ptr noundef nonnull @.str.26) #13
  %.not45 = icmp eq i32 %7, 0
  br i1 %.not45, label %29, label %28

28:                                               ; preds = %Wln_GetYosysName.exit
  %puts = call i32 @puts(ptr nonnull dereferenceable(1) %9)
  br label %29

29:                                               ; preds = %28, %Wln_GetYosysName.exit
  %30 = call i32 @system(ptr noundef nonnull %9) #13
  %31 = icmp eq i32 %30, -1
  br i1 %31, label %32, label %35

32:                                               ; preds = %29
  %33 = load ptr, ptr @stdout, align 8, !tbaa !6
  %34 = call i32 (ptr, ptr, ...) @fprintf(ptr noundef %33, ptr noundef nonnull @.str.12, ptr noundef nonnull %9) #13
  br label %.critedge

35:                                               ; preds = %29
  %36 = tail call noalias ptr @fopen(ptr noundef nonnull @.str.26, ptr noundef nonnull @.str.13)
  %37 = icmp eq ptr %36, null
  br i1 %37, label %38, label %41

38:                                               ; preds = %35
  %39 = load ptr, ptr @stdout, align 8, !tbaa !6
  %40 = tail call i32 (ptr, ptr, ...) @fprintf(ptr noundef %39, ptr noundef nonnull @.str.14, ptr noundef nonnull @.str.26) #13
  br label %.critedge

41:                                               ; preds = %35
  %42 = tail call i32 @fclose(ptr noundef nonnull %36)
  %43 = tail call ptr @Gia_AigerRead(ptr noundef nonnull @.str.26, i32 noundef 0, i32 noundef %3, i32 noundef 0) #13
  %44 = icmp eq ptr %43, null
  br i1 %44, label %45, label %46

45:                                               ; preds = %41
  %puts50 = tail call i32 @puts(ptr nonnull dereferenceable(1) @str)
  br label %.critedge

46:                                               ; preds = %41
  %47 = load ptr, ptr %43, align 8, !tbaa !11
  %.not47 = icmp eq ptr %47, null
  br i1 %.not47, label %49, label %48

48:                                               ; preds = %46
  tail call void @free(ptr noundef nonnull %47) #13
  store ptr null, ptr %43, align 8, !tbaa !11
  br label %49

49:                                               ; preds = %46, %48
  br i1 %.not42, label %55, label %50

50:                                               ; preds = %49
  %51 = tail call i64 @strlen(ptr noundef nonnull readonly dereferenceable(1) %1) #12
  %52 = add i64 %51, 1
  %53 = tail call noalias noundef ptr @malloc(i64 noundef %52) #11
  %54 = tail call ptr @strcpy(ptr noundef nonnull dereferenceable(1) %53, ptr noundef nonnull readonly dereferenceable(1) %1) #13
  br label %58

55:                                               ; preds = %49
  %56 = tail call ptr @Extra_FileNameWithoutPath(ptr noundef nonnull %0) #13
  %57 = tail call ptr @Extra_FileNameGeneric(ptr noundef %56) #13
  br label %58

58:                                               ; preds = %55, %50
  %59 = phi ptr [ %53, %50 ], [ %57, %55 ]
  store ptr %59, ptr %43, align 8, !tbaa !11
  %60 = tail call i32 @unlink(ptr noundef nonnull @.str.26) #13
  %.not48 = icmp eq i32 %4, 0
  br i1 %.not48, label %.critedge, label %.preheader

.preheader:                                       ; preds = %58
  %61 = getelementptr i8, ptr %43, i64 32
  %62 = getelementptr i8, ptr %43, i64 16
  %63 = getelementptr i8, ptr %43, i64 72
  %.val57 = load i32, ptr %62, align 8, !tbaa !33
  %.val5158 = load ptr, ptr %63, align 8, !tbaa !34
  %64 = getelementptr i8, ptr %.val5158, i64 4
  %.val51.val59 = load i32, ptr %64, align 4, !tbaa !35
  %65 = icmp sgt i32 %.val51.val59, %.val57
  br i1 %65, label %.lr.ph, label %.critedge

.lr.ph:                                           ; preds = %.preheader, %66
  %indvars.iv = phi i64 [ %indvars.iv.next, %66 ], [ 0, %.preheader ]
  %.val5161 = phi ptr [ %.val51, %66 ], [ %.val5158, %.preheader ]
  %.val52 = load ptr, ptr %61, align 8, !tbaa !36
  %.not49 = icmp eq ptr %.val52, null
  br i1 %.not49, label %.critedge, label %66

66:                                               ; preds = %.lr.ph
  %67 = getelementptr i8, ptr %.val5161, i64 8
  %.val53.val = load ptr, ptr %67, align 8, !tbaa !37
  %68 = getelementptr inbounds nuw i32, ptr %.val53.val, i64 %indvars.iv
  %69 = load i32, ptr %68, align 4, !tbaa !38
  %70 = sext i32 %69 to i64
  %71 = getelementptr inbounds %struct.Gia_Obj_t_, ptr %.val52, i64 %70
  %72 = load i64, ptr %71, align 4
  %73 = xor i64 %72, 536870912
  store i64 %73, ptr %71, align 4
  %indvars.iv.next = add nuw nsw i64 %indvars.iv, 1
  %.val = load i32, ptr %62, align 8, !tbaa !33
  %.val51 = load ptr, ptr %63, align 8, !tbaa !34
  %74 = getelementptr i8, ptr %.val51, i64 4
  %.val51.val = load i32, ptr %74, align 4, !tbaa !35
  %75 = sub nsw i32 %.val51.val, %.val
  %76 = sext i32 %75 to i64
  %77 = icmp slt i64 %indvars.iv.next, %76
  br i1 %77, label %.lr.ph, label %.critedge, !llvm.loop !39

.critedge:                                        ; preds = %.lr.ph, %66, %.preheader, %38, %32, %58, %45
  %.035 = phi ptr [ null, %45 ], [ %43, %58 ], [ null, %32 ], [ null, %38 ], [ %43, %.preheader ], [ %43, %66 ], [ %43, %.lr.ph ]
  call void @llvm.lifetime.end.p0(i64 1000, ptr nonnull %9) #13
  ret ptr %.035
}